; Function Attrs: nounwind uwtable
define ptr @l_Lake_RBNode_dFind___at_Lake_Package_loadFromEnv___spec__22(ptr readnone captures(none) %0, ptr noundef %1, ptr noundef %2) local_unnamed_addr #2 {
  br label %4

4:                                                ; preds = %.backedge, %3
  %.017 = phi ptr [ %1, %3 ], [ %.017.be, %.backedge ]
  %5 = ptrtoint ptr %.017 to i64
  %6 = and i64 %5, 1
  %.not.i = icmp eq i64 %6, 0
  br i1 %.not.i, label %10, label %7

7:                                                ; preds = %4
  %8 = lshr i64 %5, 1
  %9 = trunc i64 %8 to i32
  br label %lean_obj_tag.exit

10:                                               ; preds = %4
  %11 = getelementptr i8, ptr %.017, i64 4
  %.val.i = load i32, ptr %11, align 4
  %12 = lshr i32 %.val.i, 24
  br label %lean_obj_tag.exit

lean_obj_tag.exit:                                ; preds = %7, %10
  %.0.i = phi i32 [ %9, %7 ], [ %12, %10 ]
  %13 = icmp eq i32 %.0.i, 0
  br i1 %13, label %.loopexit, label %14

14:                                               ; preds = %lean_obj_tag.exit
  %15 = getelementptr inbounds nuw i8, ptr %.017, i64 8
  %16 = load ptr, ptr %15, align 8, !tbaa !4
  %17 = getelementptr inbounds nuw i8, ptr %.017, i64 16
  %18 = load ptr, ptr %17, align 8, !tbaa !4
  %19 = getelementptr inbounds nuw i8, ptr %.017, i64 24
  %20 = load ptr, ptr %19, align 8, !tbaa !4
  %21 = getelementptr inbounds nuw i8, ptr %.017, i64 32
  %22 = load ptr, ptr %21, align 8, !tbaa !4
  %23 = tail call zeroext i8 @l_Lean_Name_quickCmp(ptr noundef %2, ptr noundef %18) #5
  switch i8 %23, label %38 [
    i8 0, label %.backedge
    i8 1, label %24
  ]

.backedge:                                        ; preds = %14, %38
  %.017.be = phi ptr [ %22, %38 ], [ %16, %14 ]
  br label %4

24:                                               ; preds = %14
  %25 = ptrtoint ptr %20 to i64
  %26 = and i64 %25, 1
  %.not = icmp eq i64 %26, 0
  br i1 %.not, label %27, label %lean_inc.exit

27:                                               ; preds = %24
  %.val.i19 = load i32, ptr %20, align 4, !tbaa !8
  %28 = icmp sgt i32 %.val.i19, 0
  br i1 %28, label %29, label %31, !prof !11

29:                                               ; preds = %27
  %30 = add nuw i32 %.val.i19, 1
  store i32 %30, ptr %20, align 4, !tbaa !8
  br label %lean_inc.exit

31:                                               ; preds = %27
  %.not.i20 = icmp eq i32 %.val.i19, 0
  br i1 %.not.i20, label %lean_inc.exit, label %32

32:                                               ; preds = %31
  tail call void @lean_inc_ref_cold(ptr noundef nonnull %20) #5
  br label %lean_inc.exit

lean_inc.exit:                                    ; preds = %32, %31, %29, %24
  tail call void @lean_inc_heartbeat() #5
  %33 = tail call noalias ptr @mi_malloc_small(i64 noundef 16) #5
  %34 = icmp eq ptr %33, null
  br i1 %34, label %35, label %.thread

35:                                               ; preds = %lean_inc.exit
  tail call void @lean_internal_panic_out_of_memory() #6
  unreachable

.thread:                                          ; preds = %lean_inc.exit
  %36 = getelementptr inbounds nuw i8, ptr %33, i64 4
  store i32 1, ptr %33, align 4, !tbaa !8
  store i32 16842768, ptr %36, align 4
  %37 = getelementptr inbounds nuw i8, ptr %33, i64 8
  store ptr %20, ptr %37, align 8, !tbaa !4
  br label %.loopexit

38:                                               ; preds = %14
  br label %.backedge

.loopexit:                                        ; preds = %lean_obj_tag.exit, %.thread
  %.1 = phi ptr [ %33, %.thread ], [ inttoptr (i64 1 to ptr), %lean_obj_tag.exit ]
  ret ptr %.1
}